; Function Attrs: nounwind sspstrong uwtable
define internal i64 @ossl_ts_token_info_get_gen_time(i64 noundef %0) #0 {
  %2 = tail call ptr @rb_check_typeddata(i64 noundef %0, ptr noundef nonnull @ossl_ts_token_info_type) #7
  %.not = icmp eq ptr %2, null
  br i1 %.not, label %3, label %5

3:                                                ; preds = %1
  %4 = load i64, ptr @rb_eRuntimeError, align 8, !tbaa !6
  tail call void (i64, ptr, ...) @ossl_raise(i64 noundef %4, ptr noundef nonnull @.str.53) #8
  unreachable

5:                                                ; preds = %1
  %6 = tail call ptr @TS_TST_INFO_get_time(ptr noundef nonnull %2) #7
  %7 = tail call i64 @asn1time_to_time(ptr noundef %6) #7
  ret i64 %7
}